#include <math.h>
#include <stdio.h>
#include <stdlib.h>
#include <string.h>

int main(){
int i,j,k=0;
 double m,n,s;
 char a[500],b[500];
 scanf("%lf",&m);
 scanf("%s",a);
 scanf("%s",b);
 if(strlen(a)==strlen(b)){
                          
 
 for(i=0,j=0;i<strlen(a);i++){
                              if((a[i]!='A'&&a[i]!='T'&&a[i]!='C'&&a[i]!='G')||(b[i]!='A'&&b[i]!='T'&&b[i]!='C'&&b[i]!='G')){
                                                                                                                            k=1;
                                                                                                                             
                                                                                                                             }else{
                                                                                                                                   
                          if(a[i]==b[i]){
                                        j++;
                                        }
                                        }
                                        }
                                        if(k==0){
                                                 
                                        n=0.1*strlen(a);
                                         s=j*0.1/n;
                                         if(s>m){
                                                 printf("yes");
                                                 }else{
                                                       printf("no");
                                                       }
                                                       }else{
                                                             printf("error");
                                                             }
                                                             }else{
                                                             printf("error");
                                                             }
return 0;
}
                                                             